; Function Attrs: nounwind uwtable
define internal i32 @dom_nodelist_has_dimension(ptr noundef %0, ptr noundef %1, i32 %2) #1 {
  %4 = alloca double, align 8
  %5 = alloca i64, align 8
  %6 = getelementptr inbounds i8, ptr %1, i64 8
  %7 = load i8, ptr %6, align 8
  %8 = icmp eq i8 %7, 10
  br i1 %8, label %9, label %12

9:                                                ; preds = %3
  %10 = load ptr, ptr %1, align 8
  %11 = getelementptr inbounds i8, ptr %10, i64 8
  %.phi.trans.insert = getelementptr inbounds i8, ptr %10, i64 16
  %.pre = load i8, ptr %.phi.trans.insert, align 8
  br label %12

12:                                               ; preds = %3, %9
  %13 = phi i8 [ %.pre, %9 ], [ %7, %3 ]
  %.05 = phi ptr [ %11, %9 ], [ %1, %3 ]
  call void @llvm.lifetime.start.p0(i64 8, ptr nonnull %4)
  switch i8 %13, label %36 [
    i8 6, label %14
    i8 4, label %34
  ]

14:                                               ; preds = %12
  %15 = load ptr, ptr %.05, align 8
  %16 = getelementptr inbounds i8, ptr %15, i64 24
  %17 = load i8, ptr %16, align 1
  %18 = icmp sgt i8 %17, 57
  br i1 %18, label %dom_nodemap_or_nodelist_process_offset_as_named.exit.thread, label %19

19:                                               ; preds = %14
  %20 = getelementptr inbounds i8, ptr %15, i64 16
  %21 = load i64, ptr %20, align 8
  %22 = call zeroext i8 @_is_numeric_string_ex(ptr noundef nonnull %16, i64 noundef %21, ptr noundef nonnull %5, ptr noundef nonnull %4, i1 noundef zeroext true, ptr noundef null, ptr noundef null) #16
  switch i8 %22, label %thread-pre-split [
    i8 0, label %dom_nodemap_or_nodelist_process_offset_as_named.exit.thread
    i8 5, label %23
  ]

23:                                               ; preds = %19
  %24 = load double, ptr %4, align 8
  %25 = call double @llvm.fabs.f64(double %24)
  %or.cond40.i = fcmp ueq double %25, 0x7FF0000000000000
  br i1 %or.cond40.i, label %.sink.split.i, label %26

26:                                               ; preds = %23
  %27 = fcmp oge double %24, 0x43E0000000000000
  %28 = fcmp olt double %24, 0xC3E0000000000000
  %or.cond.i = or i1 %27, %28
  br i1 %or.cond.i, label %29, label %32

29:                                               ; preds = %26
  %30 = fcmp ogt double %24, 0.000000e+00
  %31 = select i1 %30, i64 9223372036854775807, i64 -9223372036854775808
  br label %.sink.split.i

32:                                               ; preds = %26
  %33 = fptosi double %24 to i64
  br label %.sink.split.i

34:                                               ; preds = %12
  %35 = load i64, ptr %.05, align 8
  br label %.sink.split.i

36:                                               ; preds = %12
  %37 = tail call i64 @zval_get_long_func(ptr noundef nonnull %.05, i1 noundef zeroext false) #16
  br label %.sink.split.i

.sink.split.i:                                    ; preds = %36, %34, %32, %29, %23
  %.035.sink.i = phi i64 [ %31, %29 ], [ %33, %32 ], [ 0, %23 ], [ %35, %34 ], [ %37, %36 ]
  store i64 %.035.sink.i, ptr %5, align 8
  br label %38

dom_nodemap_or_nodelist_process_offset_as_named.exit.thread: ; preds = %19, %14
  call void @llvm.lifetime.end.p0(i64 8, ptr nonnull %4)
  br label %47

thread-pre-split:                                 ; preds = %19
  %.pr = load i64, ptr %5, align 8
  br label %38

38:                                               ; preds = %thread-pre-split, %.sink.split.i
  %39 = phi i64 [ %.pr, %thread-pre-split ], [ %.035.sink.i, %.sink.split.i ]
  call void @llvm.lifetime.end.p0(i64 8, ptr nonnull %4)
  %40 = icmp sgt i64 %39, -1
  br i1 %40, label %41, label %47

41:                                               ; preds = %38
  %42 = getelementptr inbounds i8, ptr %0, i64 -24
  %43 = call i32 @php_dom_get_nodelist_length(ptr noundef nonnull %42) #16
  %44 = sext i32 %43 to i64
  %45 = icmp slt i64 %39, %44
  %46 = zext i1 %45 to i32
  br label %47

47:                                               ; preds = %dom_nodemap_or_nodelist_process_offset_as_named.exit.thread, %38, %41
  %.0 = phi i32 [ 0, %38 ], [ %46, %41 ], [ 0, %dom_nodemap_or_nodelist_process_offset_as_named.exit.thread ]
  ret i32 %.0
}